target datalayout = "e-m:e-p270:32:32-p271:32:32-p272:64:64-i64:64-i128:128-f80:128-n8:16:32:64-S128"
target triple = "x86_64-unknown-linux-gnu"

%"class.std::__cxx11::basic_string" = type { %"struct.std::__cxx11::basic_string<char>::_Alloc_hider", i64, %union.anon }
%"struct.std::__cxx11::basic_string<char>::_Alloc_hider" = type { ptr }
%union.anon = type { i64, [8 x i8] }
%"class.node::inspector::SocketSession::Delegate" = type <{ %"class.node::inspector::InspectorSocket::Delegate", ptr, i32, [4 x i8] }>
%"class.node::inspector::InspectorSocket::Delegate" = type { ptr }

; Function Attrs: mustprogress nounwind uwtable
define dso_local void @_ZN4node9inspector13SocketSession8Delegate15OnSocketUpgradeERKNSt7__cxx1112basic_stringIcSt11char_traitsIcESaIcEEESA_SA_(ptr noundef nonnull align 8 dereferenceable(20) %this, ptr noundef nonnull align 8 dereferenceable(32) %host, ptr noundef nonnull align 8 dereferenceable(32) %path, ptr noundef nonnull align 8 dereferenceable(32) %ws_key) unnamed_addr #0 align 2 {
entry:
  %this.addr = alloca ptr, align 8
  %host.addr = alloca ptr, align 8
  %path.addr = alloca ptr, align 8
  %ws_key.addr = alloca ptr, align 8
  %id = alloca %"class.std::__cxx11::basic_string", align 8
  store ptr %this, ptr %this.addr, align 8
  store ptr %host, ptr %host.addr, align 8
  store ptr %path, ptr %path.addr, align 8
  store ptr %ws_key, ptr %ws_key.addr, align 8
  %this1 = load ptr, ptr %this.addr, align 8
  %0 = load ptr, ptr %path.addr, align 8
  %call = call noundef zeroext i1 @_ZNKSt7__cxx1112basic_stringIcSt11char_traitsIcESaIcEE5emptyEv(ptr noundef nonnull align 8 dereferenceable(32) %0) #12
  br i1 %call, label %cond.true, label %cond.false

cond.true:                                        ; preds = %entry
  %1 = load ptr, ptr %path.addr, align 8
  call void @_ZNSt7__cxx1112basic_stringIcSt11char_traitsIcESaIcEEC1ERKS4_(ptr noundef nonnull align 8 dereferenceable(32) %id, ptr noundef nonnull align 8 dereferenceable(32) %1)
  br label %cond.end

cond.false:                                       ; preds = %entry
  %2 = load ptr, ptr %path.addr, align 8
  call void @_ZNKSt7__cxx1112basic_stringIcSt11char_traitsIcESaIcEE6substrEmm(ptr sret(%"class.std::__cxx11::basic_string") align 8 %id, ptr noundef nonnull align 8 dereferenceable(32) %2, i64 noundef 1, i64 noundef -1)
  br label %cond.end

cond.end:                                         ; preds = %cond.false, %cond.true
  %server_ = getelementptr inbounds %"class.node::inspector::SocketSession::Delegate", ptr %this1, i32 0, i32 1
  %3 = load ptr, ptr %server_, align 8
  %session_id_ = getelementptr inbounds %"class.node::inspector::SocketSession::Delegate", ptr %this1, i32 0, i32 2
  %4 = load i32, ptr %session_id_, align 8
  %5 = load ptr, ptr %ws_key.addr, align 8
  call void @_ZN4node9inspector21InspectorSocketServer14SessionStartedEiRKNSt7__cxx1112basic_stringIcSt11char_traitsIcESaIcEEES9_(ptr noundef nonnull align 8 dereferenceable(148) %3, i32 noundef %4, ptr noundef nonnull align 8 dereferenceable(32) %id, ptr noundef nonnull align 8 dereferenceable(32) %5)
  call void @_ZNSt7__cxx1112basic_stringIcSt11char_traitsIcESaIcEED1Ev(ptr noundef nonnull align 8 dereferenceable(32) %id) #12
  ret void
}