; Function Attrs: mustprogress nounwind uwtable
define dso_local void @_ZN4node9inspector13SocketSession8Delegate15OnSocketUpgradeERKNSt7__cxx1112basic_stringIcSt11char_traitsIcESaIcEEESA_SA_(ptr nocapture noundef nonnull readonly align 8 dereferenceable(20) %this, ptr nocapture nonnull readnone align 8 %host, ptr noundef nonnull align 8 dereferenceable(32) %path, ptr noundef nonnull align 8 dereferenceable(32) %ws_key) unnamed_addr #0 align 2 {
entry:
  %id = alloca %"class.std::__cxx11::basic_string", align 8
  %call = tail call noundef zeroext i1 @_ZNKSt7__cxx1112basic_stringIcSt11char_traitsIcESaIcEE5emptyEv(ptr noundef nonnull align 8 dereferenceable(32) %path) #19
  br i1 %call, label %cond.true, label %cond.false

cond.true:                                        ; preds = %entry
  call void @_ZNSt7__cxx1112basic_stringIcSt11char_traitsIcESaIcEEC1ERKS4_(ptr noundef nonnull align 8 dereferenceable(32) %id, ptr noundef nonnull align 8 dereferenceable(32) %path) #19
  br label %cond.end

cond.false:                                       ; preds = %entry
  call void @_ZNKSt7__cxx1112basic_stringIcSt11char_traitsIcESaIcEE6substrEmm(ptr nonnull sret(%"class.std::__cxx11::basic_string") align 8 %id, ptr noundef nonnull align 8 dereferenceable(32) %path, i64 noundef 1, i64 noundef -1) #19
  br label %cond.end

cond.end:                                         ; preds = %cond.false, %cond.true
  %server_ = getelementptr inbounds i8, ptr %this, i64 8
  %0 = load ptr, ptr %server_, align 8
  %session_id_ = getelementptr inbounds i8, ptr %this, i64 16
  %1 = load i32, ptr %session_id_, align 8
  call void @_ZN4node9inspector21InspectorSocketServer14SessionStartedEiRKNSt7__cxx1112basic_stringIcSt11char_traitsIcESaIcEEES9_(ptr noundef nonnull align 8 dereferenceable(148) %0, i32 noundef %1, ptr noundef nonnull align 8 dereferenceable(32) %id, ptr noundef nonnull align 8 dereferenceable(32) %ws_key)
  call void @_ZNSt7__cxx1112basic_stringIcSt11char_traitsIcESaIcEED1Ev(ptr noundef nonnull align 8 dereferenceable(32) %id) #19
  ret void
}